target datalayout = "e-m:e-p270:32:32-p271:32:32-p272:64:64-i64:64-i128:128-f80:128-n8:16:32:64-S128"
target triple = "x86_64-pc-linux-gnu"

%struct.H5G_t = type { ptr, %struct.H5O_loc_t, %struct.H5G_name_t }
%struct.H5O_loc_t = type { ptr, i64, i8 }
%struct.H5G_name_t = type { ptr, ptr, i32 }

@.str = private unnamed_addr constant [101 x i8] c"generated/home/dtcxzyw/WorkSpace/Projects/compilers/llvm-opt-benchmark/bench/hdf5/hdf5/src/H5Gtest.c\00", align 1
@H5E_ARGS_g = external global i64, align 8
@H5E_BADTYPE_g = external global i64, align 8
@.str.1 = private unnamed_addr constant [12 x i8] c"not a group\00", align 1
@H5E_SYM_g = external global i64, align 8
@H5E_CANTSET_g = external global i64, align 8
@.str.2 = private unnamed_addr constant [22 x i8] c"can't set API context\00", align 1
@H5E_CANTINIT_g = external global i64, align 8
@.str.3 = private unnamed_addr constant [29 x i8] c"unable to read object header\00", align 1
@H5E_BADVALUE_g = external global i64, align 8
@.str.4 = private unnamed_addr constant [42 x i8] c"both symbol table and link messages found\00", align 1
@H5E_CANTRESET_g = external global i64, align 8
@.str.10 = private unnamed_addr constant [24 x i8] c"can't reset API context\00", align 1
@__func__.H5G__has_links_test = private unnamed_addr constant [20 x i8] c"H5G__has_links_test\00", align 1
@H5E_CANTCOUNT_g = external global i64, align 8
@.str.11 = private unnamed_addr constant [30 x i8] c"unable to count link messages\00", align 1

; Function Attrs: nounwind uwtable
define i32 @H5G__has_links_test(i64 noundef %0, ptr noundef %1) #0 {
  %3 = alloca i64, align 8
  %4 = alloca ptr, align 8
  %5 = alloca ptr, align 8
  %6 = alloca i32, align 4
  %7 = alloca i8, align 1
  %8 = alloca i32, align 4
  %9 = alloca i8, align 1
  %10 = alloca i32, align 4
  store i64 %0, ptr %3, align 8
  store ptr %1, ptr %4, align 8
  store ptr null, ptr %5, align 8
  store i32 0, ptr %6, align 4
  store i8 0, ptr %7, align 1
  store i32 1, ptr %8, align 4
  store i8 0, ptr %9, align 1
  %11 = load i64, ptr %3, align 8
  %12 = call ptr @H5VL_object_verify(i64 noundef %11, i32 noundef 2)
  store ptr %12, ptr %5, align 8
  %13 = icmp eq ptr null, %12
  br i1 %13, label %14, label %29

14:                                               ; preds = %2
  br label %15

15:                                               ; preds = %14
  br label %16

16:                                               ; preds = %15
  br label %17

17:                                               ; preds = %16
  %18 = load i64, ptr @H5E_ARGS_g, align 8
  %19 = load i64, ptr @H5E_BADTYPE_g, align 8
  %20 = call i32 (ptr, ptr, i32, i64, i64, ptr, ...) @H5E_printf_stack(ptr noundef @.str, ptr noundef @__func__.H5G__has_links_test, i32 noundef 215, i64 noundef %18, i64 noundef %19, ptr noundef @.str.1)
  br label %21

21:                                               ; preds = %17
  store i8 1, ptr %9, align 1
  %22 = load i8, ptr %9, align 1
  %23 = trunc i8 %22 to i1
  %24 = zext i1 %23 to i8
  store i8 %24, ptr %9, align 1
  br label %25

25:                                               ; preds = %21
  br label %26

26:                                               ; preds = %25
  store i32 -1, ptr %8, align 4
  br label %138

27:                                               ; No predecessors!
  br label %28

28:                                               ; preds = %27
  br label %29

29:                                               ; preds = %28, %2
  %30 = call i32 @H5CX_push()
  %31 = icmp slt i32 %30, 0
  br i1 %31, label %32, label %47

32:                                               ; preds = %29
  br label %33

33:                                               ; preds = %32
  br label %34

34:                                               ; preds = %33
  br label %35

35:                                               ; preds = %34
  %36 = load i64, ptr @H5E_SYM_g, align 8
  %37 = load i64, ptr @H5E_CANTSET_g, align 8
  %38 = call i32 (ptr, ptr, i32, i64, i64, ptr, ...) @H5E_printf_stack(ptr noundef @.str, ptr noundef @__func__.H5G__has_links_test, i32 noundef 219, i64 noundef %36, i64 noundef %37, ptr noundef @.str.2)
  br label %39

39:                                               ; preds = %35
  store i8 1, ptr %9, align 1
  %40 = load i8, ptr %9, align 1
  %41 = trunc i8 %40 to i1
  %42 = zext i1 %41 to i8
  store i8 %42, ptr %9, align 1
  br label %43

43:                                               ; preds = %39
  br label %44

44:                                               ; preds = %43
  store i32 -1, ptr %8, align 4
  br label %138

45:                                               ; No predecessors!
  br label %46

46:                                               ; preds = %45
  br label %47

47:                                               ; preds = %46, %29
  store i8 1, ptr %7, align 1
  %48 = load ptr, ptr %5, align 8
  %49 = getelementptr inbounds %struct.H5G_t, ptr %48, i32 0, i32 1
  %50 = call i32 @H5O_msg_exists(ptr noundef %49, i32 noundef 6)
  store i32 %50, ptr %6, align 4
  %51 = icmp slt i32 %50, 0
  br i1 %51, label %52, label %67

52:                                               ; preds = %47
  br label %53

53:                                               ; preds = %52
  br label %54

54:                                               ; preds = %53
  br label %55

55:                                               ; preds = %54
  %56 = load i64, ptr @H5E_SYM_g, align 8
  %57 = load i64, ptr @H5E_CANTINIT_g, align 8
  %58 = call i32 (ptr, ptr, i32, i64, i64, ptr, ...) @H5E_printf_stack(ptr noundef @.str, ptr noundef @__func__.H5G__has_links_test, i32 noundef 224, i64 noundef %56, i64 noundef %57, ptr noundef @.str.3)
  br label %59

59:                                               ; preds = %55
  store i8 1, ptr %9, align 1
  %60 = load i8, ptr %9, align 1
  %61 = trunc i8 %60 to i1
  %62 = zext i1 %61 to i8
  store i8 %62, ptr %9, align 1
  br label %63

63:                                               ; preds = %59
  br label %64

64:                                               ; preds = %63
  store i32 -1, ptr %8, align 4
  br label %138

65:                                               ; No predecessors!
  br label %66

66:                                               ; preds = %65
  br label %67

67:                                               ; preds = %66, %47
  %68 = load i32, ptr %6, align 4
  %69 = icmp eq i32 %68, 0
  br i1 %69, label %70, label %73

70:                                               ; preds = %67
  br label %71

71:                                               ; preds = %70
  store i32 0, ptr %8, align 4
  br label %138

72:                                               ; No predecessors!
  br label %73

73:                                               ; preds = %72, %67
  %74 = load ptr, ptr %5, align 8
  %75 = getelementptr inbounds %struct.H5G_t, ptr %74, i32 0, i32 1
  %76 = call i32 @H5O_msg_exists(ptr noundef %75, i32 noundef 17)
  store i32 %76, ptr %6, align 4
  %77 = icmp slt i32 %76, 0
  br i1 %77, label %78, label %93

78:                                               ; preds = %73
  br label %79

79:                                               ; preds = %78
  br label %80

80:                                               ; preds = %79
  br label %81

81:                                               ; preds = %80
  %82 = load i64, ptr @H5E_SYM_g, align 8
  %83 = load i64, ptr @H5E_CANTINIT_g, align 8
  %84 = call i32 (ptr, ptr, i32, i64, i64, ptr, ...) @H5E_printf_stack(ptr noundef @.str, ptr noundef @__func__.H5G__has_links_test, i32 noundef 230, i64 noundef %82, i64 noundef %83, ptr noundef @.str.3)
  br label %85

85:                                               ; preds = %81
  store i8 1, ptr %9, align 1
  %86 = load i8, ptr %9, align 1
  %87 = trunc i8 %86 to i1
  %88 = zext i1 %87 to i8
  store i8 %88, ptr %9, align 1
  br label %89

89:                                               ; preds = %85
  br label %90

90:                                               ; preds = %89
  store i32 -1, ptr %8, align 4
  br label %138

91:                                               ; No predecessors!
  br label %92

92:                                               ; preds = %91
  br label %93

93:                                               ; preds = %92, %73
  %94 = load i32, ptr %6, align 4
  %95 = icmp sgt i32 %94, 0
  br i1 %95, label %96, label %111

96:                                               ; preds = %93
  br label %97

97:                                               ; preds = %96
  br label %98

98:                                               ; preds = %97
  br label %99

99:                                               ; preds = %98
  %100 = load i64, ptr @H5E_SYM_g, align 8
  %101 = load i64, ptr @H5E_BADVALUE_g, align 8
  %102 = call i32 (ptr, ptr, i32, i64, i64, ptr, ...) @H5E_printf_stack(ptr noundef @.str, ptr noundef @__func__.H5G__has_links_test, i32 noundef 232, i64 noundef %100, i64 noundef %101, ptr noundef @.str.4)
  br label %103

103:                                              ; preds = %99
  store i8 1, ptr %9, align 1
  %104 = load i8, ptr %9, align 1
  %105 = trunc i8 %104 to i1
  %106 = zext i1 %105 to i8
  store i8 %106, ptr %9, align 1
  br label %107

107:                                              ; preds = %103
  br label %108

108:                                              ; preds = %107
  store i32 -1, ptr %8, align 4
  br label %138

109:                                              ; No predecessors!
  br label %110

110:                                              ; preds = %109
  br label %111

111:                                              ; preds = %110, %93
  %112 = load ptr, ptr %4, align 8
  %113 = icmp ne ptr %112, null
  br i1 %113, label %114, label %137

114:                                              ; preds = %111
  %115 = load ptr, ptr %5, align 8
  %116 = getelementptr inbounds %struct.H5G_t, ptr %115, i32 0, i32 1
  %117 = call i32 @H5O_msg_count(ptr noundef %116, i32 noundef 6)
  store i32 %117, ptr %10, align 4
  %118 = icmp slt i32 %117, 0
  br i1 %118, label %119, label %134

119:                                              ; preds = %114
  br label %120

120:                                              ; preds = %119
  br label %121

121:                                              ; preds = %120
  br label %122

122:                                              ; preds = %121
  %123 = load i64, ptr @H5E_SYM_g, align 8
  %124 = load i64, ptr @H5E_CANTCOUNT_g, align 8
  %125 = call i32 (ptr, ptr, i32, i64, i64, ptr, ...) @H5E_printf_stack(ptr noundef @.str, ptr noundef @__func__.H5G__has_links_test, i32 noundef 240, i64 noundef %123, i64 noundef %124, ptr noundef @.str.11)
  br label %126

126:                                              ; preds = %122
  store i8 1, ptr %9, align 1
  %127 = load i8, ptr %9, align 1
  %128 = trunc i8 %127 to i1
  %129 = zext i1 %128 to i8
  store i8 %129, ptr %9, align 1
  br label %130

130:                                              ; preds = %126
  br label %131

131:                                              ; preds = %130
  store i32 -1, ptr %8, align 4
  br label %138

132:                                              ; No predecessors!
  br label %133

133:                                              ; preds = %132
  br label %134

134:                                              ; preds = %133, %114
  %135 = load i32, ptr %10, align 4
  %136 = load ptr, ptr %4, align 8
  store i32 %135, ptr %136, align 4
  br label %137

137:                                              ; preds = %134, %111
  br label %138

138:                                              ; preds = %137, %131, %108, %90, %71, %64, %44, %26
  %139 = load i8, ptr %7, align 1
  %140 = trunc i8 %139 to i1
  br i1 %140, label %141, label %157

141:                                              ; preds = %138
  %142 = call i32 @H5CX_pop(i1 noundef zeroext false)
  %143 = icmp slt i32 %142, 0
  br i1 %143, label %144, label %157

144:                                              ; preds = %141
  br label %145

145:                                              ; preds = %144
  br label %146

146:                                              ; preds = %145
  br label %147

147:                                              ; preds = %146
  %148 = load i64, ptr @H5E_SYM_g, align 8
  %149 = load i64, ptr @H5E_CANTRESET_g, align 8
  %150 = call i32 (ptr, ptr, i32, i64, i64, ptr, ...) @H5E_printf_stack(ptr noundef @.str, ptr noundef @__func__.H5G__has_links_test, i32 noundef 246, i64 noundef %148, i64 noundef %149, ptr noundef @.str.10)
  br label %151

151:                                              ; preds = %147
  store i8 1, ptr %9, align 1
  %152 = load i8, ptr %9, align 1
  %153 = trunc i8 %152 to i1
  %154 = zext i1 %153 to i8
  store i8 %154, ptr %9, align 1
  br label %155

155:                                              ; preds = %151
  store i32 -1, ptr %8, align 4
  br label %156

156:                                              ; preds = %155
  br label %157

157:                                              ; preds = %156, %141, %138
  %158 = load i32, ptr %8, align 4
  ret i32 %158
}