; Function Attrs: nounwind uwtable
define range(i32 -1, 2) i32 @H5G__has_links_test(i64 noundef %0, ptr noundef writeonly %1) local_unnamed_addr #0 {
  %3 = tail call ptr @H5VL_object_verify(i64 noundef %0, i32 noundef 2) #4
  %4 = icmp eq ptr %3, null
  br i1 %4, label %5, label %9

5:                                                ; preds = %2
  %6 = load i64, ptr @H5E_ARGS_g, align 8
  %7 = load i64, ptr @H5E_BADTYPE_g, align 8
  %8 = tail call i32 (ptr, ptr, i32, i64, i64, ptr, ...) @H5E_printf_stack(ptr noundef nonnull @.str, ptr noundef nonnull @__func__.H5G__has_links_test, i32 noundef 215, i64 noundef %6, i64 noundef %7, ptr noundef nonnull @.str.1) #4
  br label %54

9:                                                ; preds = %2
  %10 = tail call i32 @H5CX_push() #4
  %11 = icmp slt i32 %10, 0
  br i1 %11, label %12, label %16

12:                                               ; preds = %9
  %13 = load i64, ptr @H5E_SYM_g, align 8
  %14 = load i64, ptr @H5E_CANTSET_g, align 8
  %15 = tail call i32 (ptr, ptr, i32, i64, i64, ptr, ...) @H5E_printf_stack(ptr noundef nonnull @.str, ptr noundef nonnull @__func__.H5G__has_links_test, i32 noundef 219, i64 noundef %13, i64 noundef %14, ptr noundef nonnull @.str.2) #4
  br label %54

16:                                               ; preds = %9
  %17 = getelementptr inbounds i8, ptr %3, i64 8
  %18 = tail call i32 @H5O_msg_exists(ptr noundef nonnull %17, i32 noundef 6) #4
  %19 = icmp slt i32 %18, 0
  br i1 %19, label %20, label %24

20:                                               ; preds = %16
  %21 = load i64, ptr @H5E_SYM_g, align 8
  %22 = load i64, ptr @H5E_CANTINIT_g, align 8
  %23 = tail call i32 (ptr, ptr, i32, i64, i64, ptr, ...) @H5E_printf_stack(ptr noundef nonnull @.str, ptr noundef nonnull @__func__.H5G__has_links_test, i32 noundef 224, i64 noundef %21, i64 noundef %22, ptr noundef nonnull @.str.3) #4
  br label %47

24:                                               ; preds = %16
  %25 = icmp eq i32 %18, 0
  br i1 %25, label %47, label %26

26:                                               ; preds = %24
  %27 = tail call i32 @H5O_msg_exists(ptr noundef nonnull %17, i32 noundef 17) #4
  %28 = icmp slt i32 %27, 0
  br i1 %28, label %29, label %33

29:                                               ; preds = %26
  %30 = load i64, ptr @H5E_SYM_g, align 8
  %31 = load i64, ptr @H5E_CANTINIT_g, align 8
  %32 = tail call i32 (ptr, ptr, i32, i64, i64, ptr, ...) @H5E_printf_stack(ptr noundef nonnull @.str, ptr noundef nonnull @__func__.H5G__has_links_test, i32 noundef 230, i64 noundef %30, i64 noundef %31, ptr noundef nonnull @.str.3) #4
  br label %47

33:                                               ; preds = %26
  %.not = icmp eq i32 %27, 0
  br i1 %.not, label %38, label %34

34:                                               ; preds = %33
  %35 = load i64, ptr @H5E_SYM_g, align 8
  %36 = load i64, ptr @H5E_BADVALUE_g, align 8
  %37 = tail call i32 (ptr, ptr, i32, i64, i64, ptr, ...) @H5E_printf_stack(ptr noundef nonnull @.str, ptr noundef nonnull @__func__.H5G__has_links_test, i32 noundef 232, i64 noundef %35, i64 noundef %36, ptr noundef nonnull @.str.4) #4
  br label %47

38:                                               ; preds = %33
  %.not23 = icmp eq ptr %1, null
  br i1 %.not23, label %47, label %39

39:                                               ; preds = %38
  %40 = tail call i32 @H5O_msg_count(ptr noundef nonnull %17, i32 noundef 6) #4
  %41 = icmp slt i32 %40, 0
  br i1 %41, label %42, label %46

42:                                               ; preds = %39
  %43 = load i64, ptr @H5E_SYM_g, align 8
  %44 = load i64, ptr @H5E_CANTCOUNT_g, align 8
  %45 = tail call i32 (ptr, ptr, i32, i64, i64, ptr, ...) @H5E_printf_stack(ptr noundef nonnull @.str, ptr noundef nonnull @__func__.H5G__has_links_test, i32 noundef 240, i64 noundef %43, i64 noundef %44, ptr noundef nonnull @.str.11) #4
  br label %47

46:                                               ; preds = %39
  store i32 %40, ptr %1, align 4
  br label %47

47:                                               ; preds = %20, %29, %34, %42, %46, %38, %24
  %.0.ph = phi i32 [ 0, %24 ], [ 1, %38 ], [ 1, %46 ], [ -1, %42 ], [ -1, %34 ], [ -1, %29 ], [ -1, %20 ]
  %48 = tail call i32 @H5CX_pop(i1 noundef zeroext false) #4
  %49 = icmp slt i32 %48, 0
  br i1 %49, label %50, label %54

50:                                               ; preds = %47
  %51 = load i64, ptr @H5E_SYM_g, align 8
  %52 = load i64, ptr @H5E_CANTRESET_g, align 8
  %53 = tail call i32 (ptr, ptr, i32, i64, i64, ptr, ...) @H5E_printf_stack(ptr noundef nonnull @.str, ptr noundef nonnull @__func__.H5G__has_links_test, i32 noundef 246, i64 noundef %51, i64 noundef %52, ptr noundef nonnull @.str.10) #4
  br label %54

54:                                               ; preds = %5, %12, %50, %47
  %.1 = phi i32 [ -1, %50 ], [ %.0.ph, %47 ], [ -1, %5 ], [ -1, %12 ]
  ret i32 %.1
}